---
triple:          'arm64-apple-darwin'
binary-path:     hwdigit
relocations:
  - { offsetInCU: 0x44, offset: 0x44, size: 0x8, addend: 0x0, symName: __MergedGlobals, symObjAddr: 0x51F420, symBinAddr: 0x100014020, symSize: 0x0 }
  - { offsetInCU: 0xF8EB, offset: 0xF8EB, size: 0x8, addend: 0x0, symName: __ZN5Eigen8internal28conditional_aligned_new_autoIfLb1EEEPT_m, symObjAddr: 0x5A74, symBinAddr: 0x100007D94, symSize: 0x68 }
  - { offsetInCU: 0xF974, offset: 0xF974, size: 0x8, addend: 0x0, symName: __ZN5Eigen8internal12print_matrixINS_6MatrixIfLin1ELi1ELi0ELin1ELi1EEEEERNSt3__113basic_ostreamIcNS4_11char_traitsIcEEEES9_RKT_RKNS_8IOFormatE, symObjAddr: 0x9540, symBinAddr: 0x10000B860, symSize: 0x70C }
  - { offsetInCU: 0x121EA, offset: 0x121EA, size: 0x8, addend: 0x0, symName: __ZN5Eigen8internal26call_dense_assignment_loopINS_6MatrixIfLin1ELi1ELi0ELin1ELi1EEENS_13CwiseBinaryOpINS0_17scalar_product_opIffEEKNS_12ArrayWrapperIKNS_7ProductINS_9TransposeINS2_IfLin1ELin1ELi0ELin1ELin1EEEEES3_Li0EEEEEKNS7_IS3_EEEENS0_9assign_opIffEEEEvRT_RKT0_RKT1_, symObjAddr: 0x5E0C, symBinAddr: 0x10000812C, symSize: 0x250 }
  - { offsetInCU: 0x130AF, offset: 0x130AF, size: 0x8, addend: 0x0, symName: __ZN5Eigen8internal26call_dense_assignment_loopINS_6MatrixIfLin1ELin1ELi0ELin1ELin1EEENS_13CwiseBinaryOpINS0_18scalar_quotient_opIffEEKNS4_INS0_17scalar_product_opIffEEKNS_14CwiseNullaryOpINS0_18scalar_constant_opIfEEKS3_EEKNS4_INS0_13scalar_sum_opIffEESC_KNS4_IS8_SE_KNS4_ISG_KNS4_IS8_SE_KNS_12CwiseUnaryOpINSt3__18functionIFffEEESC_EEEEKNS4_IS8_SE_SC_EEEEEEEEEESE_EENS0_13add_assign_opIffEEEEvRT_RKT0_RKT1_, symObjAddr: 0x6EAC, symBinAddr: 0x1000091CC, symSize: 0x260 }
  - { offsetInCU: 0x17AE9, offset: 0x17AE9, size: 0x8, addend: 0x0, symName: __ZN5Eigen8internal26call_dense_assignment_loopINS_6MatrixIfLin1ELi1ELi0ELin1ELi1EEENS_13MatrixWrapperIKNS_13CwiseBinaryOpINS0_13scalar_sum_opIffEEKNS_12ArrayWrapperIKNS_7ProductINS2_IfLin1ELin1ELi0ELin1ELin1EEES3_Li0EEEEEKNS8_ISA_EEEEEENS0_9assign_opIffEEEEvRT_RKT0_RKT1_, symObjAddr: 0x8314, symBinAddr: 0x10000A634, symSize: 0x24C }
  - { offsetInCU: 0x18A54, offset: 0x18A54, size: 0x8, addend: 0x0, symName: __ZN5Eigen8internal26call_dense_assignment_loopINS_6MatrixIfLin1ELi1ELi0ELin1ELi1EEENS_12CwiseUnaryOpINSt3__18functionIFffEEEKS3_EENS0_9assign_opIffEEEEvRT_RKT0_RKT1_, symObjAddr: 0x8D18, symBinAddr: 0x10000B038, symSize: 0x1E0 }
  - { offsetInCU: 0x1AB8C, offset: 0x1AB8C, size: 0x8, addend: 0x0, symName: __MergedGlobals, symObjAddr: 0x51F420, symBinAddr: 0x100014020, symSize: 0x0 }
  - { offsetInCU: 0x1ABA7, offset: 0x1ABA7, size: 0x8, addend: 0x0, symName: __MergedGlobals, symObjAddr: 0x51F420, symBinAddr: 0x100014020, symSize: 0x0 }
  - { offsetInCU: 0x76D4A, offset: 0x76D4A, size: 0x8, addend: 0x0, symName: __ZN5EigenlsINS_6MatrixIfLin1ELi1ELi0ELin1ELi1EEEEERNSt3__113basic_ostreamIcNS3_11char_traitsIcEEEES8_RKNS_9DenseBaseIT_EE, symObjAddr: 0x9F4, symBinAddr: 0x100002D14, symSize: 0x2A8 }
  - { offsetInCU: 0x8D919, offset: 0x8D919, size: 0x8, addend: 0x0, symName: __ZNSt3__124__put_character_sequenceB7v160006IcNS_11char_traitsIcEEEERNS_13basic_ostreamIT_T0_EES7_PKS4_m, symObjAddr: 0x9248, symBinAddr: 0x10000B568, symSize: 0x164 }
  - { offsetInCU: 0x9222E, offset: 0x9222E, size: 0x8, addend: 0x0, symName: __ZNSt3__111this_thread9sleep_forB7v160006IeNS_5ratioILl1ELl1EEEEEvRKNS_6chrono8durationIT_T0_EE, symObjAddr: 0x5730, symBinAddr: 0x100007A50, symSize: 0x78 }
  - { offsetInCU: 0x926BC, offset: 0x926BC, size: 0x8, addend: 0x0, symName: __ZNSt3__120__throw_length_errorB7v160006EPKc, symObjAddr: 0x5848, symBinAddr: 0x100007B68, symSize: 0x50 }
  - { offsetInCU: 0x92910, offset: 0x92910, size: 0x8, addend: 0x0, symName: __ZNSt3__120__throw_out_of_rangeB7v160006EPKc, symObjAddr: 0x5B84, symBinAddr: 0x100007EA4, symSize: 0x50 }
  - { offsetInCU: 0x92950, offset: 0x92950, size: 0x8, addend: 0x0, symName: __ZNSt3__125__throw_bad_function_callB7v160006Ev, symObjAddr: 0x710C, symBinAddr: 0x10000942C, symSize: 0x34 }
  - { offsetInCU: 0x92CB2, offset: 0x92CB2, size: 0x8, addend: 0x0, symName: __ZNSt3__116__pad_and_outputB7v160006IcNS_11char_traitsIcEEEENS_19ostreambuf_iteratorIT_T0_EES6_PKS4_S8_S8_RNS_8ios_baseES4_, symObjAddr: 0x93AC, symBinAddr: 0x10000B6CC, symSize: 0x194 }
  - { offsetInCU: 0x94980, offset: 0x94980, size: 0x8, addend: 0x0, symName: __ZSt28__throw_bad_array_new_lengthB7v160006v, symObjAddr: 0x58BC, symBinAddr: 0x100007BDC, symSize: 0x28 }
  - { offsetInCU: 0x949DE, offset: 0x949DE, size: 0x8, addend: 0x0, symName: _sgn, symObjAddr: 0x51F400, symBinAddr: 0x100014000, symSize: 0x0 }
  - { offsetInCU: 0x98B8D, offset: 0x98B8D, size: 0x8, addend: 0x0, symName: __ZN5Eigen8internal29general_matrix_vector_productIlfNS0_22const_blas_data_mapperIflLi1EEELi1ELb0EfNS2_IflLi0EEELb0ELi0EE3runEllRKS3_RKS4_Pflf, symObjAddr: 0x6380, symBinAddr: 0x1000086A0, symSize: 0xB2C }
  - { offsetInCU: 0x9B9A3, offset: 0x9B9A3, size: 0x8, addend: 0x0, symName: __ZN5Eigen8internal29general_matrix_vector_productIlfNS0_22const_blas_data_mapperIflLi0EEELi0ELb0EfNS2_IflLi1EEELb0ELi0EE3runEllRKS3_RKS4_Pflf, symObjAddr: 0x86D4, symBinAddr: 0x10000A9F4, symSize: 0x630 }
  - { offsetInCU: 0x9E40D, offset: 0x9E40D, size: 0x8, addend: 0x0, symName: __ZN5Eigen8internal19gemv_dense_selectorILi2ELi1ELb1EE3runINS_9TransposeINS_6MatrixIfLin1ELin1ELi0ELin1ELin1EEEEENS5_IfLin1ELi1ELi0ELin1ELi1EEES8_EEvRKT_RKT0_RT1_RKNSF_6ScalarE, symObjAddr: 0x61F8, symBinAddr: 0x100008518, symSize: 0x188 }
  - { offsetInCU: 0xA05A2, offset: 0xA05A2, size: 0x8, addend: 0x0, symName: __ZNSt3__124uniform_int_distributionIiEclINS_23mersenne_twister_engineIjLm32ELm624ELm397ELm31ELj2567483615ELm11ELj4294967295ELm7ELj2636928640ELm15ELj4022730752ELm18ELj1812433253EEEEEiRT_RKNS1_10param_typeE, symObjAddr: 0xBA6C, symBinAddr: 0x10000DD8C, symSize: 0x198 }
  - { offsetInCU: 0xA063E, offset: 0xA063E, size: 0x8, addend: 0x0, symName: __ZNSt3__124uniform_int_distributionIiEclINS_23mersenne_twister_engineIjLm32ELm624ELm397ELm31ELj2567483615ELm11ELj4294967295ELm7ELj2636928640ELm15ELj4022730752ELm18ELj1812433253EEEEEiRT_RKNS1_10param_typeE, symObjAddr: 0xBA6C, symBinAddr: 0x10000DD8C, symSize: 0x198 }
  - { offsetInCU: 0xA2980, offset: 0xA2980, size: 0x8, addend: 0x0, symName: __Z7sigmoidf, symObjAddr: 0x0, symBinAddr: 0x100002320, symSize: 0x24 }
  - { offsetInCU: 0xA29D7, offset: 0xA29D7, size: 0x8, addend: 0x0, symName: __Z18sigmoid_derivativef, symObjAddr: 0x24, symBinAddr: 0x100002344, symSize: 0x28 }
  - { offsetInCU: 0xA2A41, offset: 0xA2A41, size: 0x8, addend: 0x0, symName: __Z4reluf, symObjAddr: 0x4C, symBinAddr: 0x10000236C, symSize: 0xC }
  - { offsetInCU: 0xA2A6F, offset: 0xA2A6F, size: 0x8, addend: 0x0, symName: __Z15relu_derivativef, symObjAddr: 0x58, symBinAddr: 0x100002378, symSize: 0x14 }
  - { offsetInCU: 0xA2A9D, offset: 0xA2A9D, size: 0x8, addend: 0x0, symName: __Z4_sgnf, symObjAddr: 0x6C, symBinAddr: 0x10000238C, symSize: 0x1C }
  - { offsetInCU: 0xA2B20, offset: 0xA2B20, size: 0x8, addend: 0x0, symName: __ZNSt3__18functionIFffEED1Ev, symObjAddr: 0x88, symBinAddr: 0x1000023A8, symSize: 0x4C }
  - { offsetInCU: 0xA2BD7, offset: 0xA2BD7, size: 0x8, addend: 0x0, symName: __Z12stl_vec_meanRKNSt3__16vectorIfNS_9allocatorIfEEEE, symObjAddr: 0xD4, symBinAddr: 0x1000023F4, symSize: 0xB8 }
  - { offsetInCU: 0xA2C11, offset: 0xA2C11, size: 0x8, addend: 0x0, symName: __Z12stl_vec_meanRKNSt3__16vectorIfNS_9allocatorIfEEEE, symObjAddr: 0xD4, symBinAddr: 0x1000023F4, symSize: 0xB8 }
  - { offsetInCU: 0xA2C4A, offset: 0xA2C4A, size: 0x8, addend: 0x0, symName: __Z12stl_vec_meanRKNSt3__16vectorIfNS_9allocatorIfEEEE, symObjAddr: 0xD4, symBinAddr: 0x1000023F4, symSize: 0xB8 }
  - { offsetInCU: 0xA2CAB, offset: 0xA2CAB, size: 0x8, addend: 0x0, symName: __Z11log_sum_expff, symObjAddr: 0x18C, symBinAddr: 0x1000024AC, symSize: 0x64 }
  - { offsetInCU: 0xA2D5C, offset: 0xA2D5C, size: 0x8, addend: 0x0, symName: __Z8safe_expf, symObjAddr: 0x1F0, symBinAddr: 0x100002510, symSize: 0x30 }
  - { offsetInCU: 0xA363F, offset: 0xA363F, size: 0x8, addend: 0x0, symName: __Z10stddev_vecRKN5Eigen6MatrixIfLin1ELi1ELi0ELin1ELi1EEE, symObjAddr: 0x220, symBinAddr: 0x100002540, symSize: 0x24C }
  - { offsetInCU: 0xA43D5, offset: 0xA43D5, size: 0x8, addend: 0x0, symName: __Z18cross_entropy_lossRKN5Eigen6MatrixIfLin1ELi1ELi0ELin1ELi1EEES3_, symObjAddr: 0x46C, symBinAddr: 0x10000278C, symSize: 0x588 }
  - { offsetInCU: 0xA43E0, offset: 0xA43E0, size: 0x8, addend: 0x0, symName: __Z10stddev_vecRKN5Eigen6MatrixIfLin1ELi1ELi0ELin1ELi1EEE.cold.2, symObjAddr: 0xBC28, symBinAddr: 0x10000DFA0, symSize: 0x24 }
  - { offsetInCU: 0xA4423, offset: 0xA4423, size: 0x8, addend: 0x0, symName: __Z10stddev_vecRKN5Eigen6MatrixIfLin1ELi1ELi0ELin1ELi1EEE.cold.1, symObjAddr: 0xBC04, symBinAddr: 0x10000DF7C, symSize: 0x24 }
  - { offsetInCU: 0xA502B, offset: 0xA502B, size: 0x8, addend: 0x0, symName: __Z18cross_entropy_lossRKN5Eigen6MatrixIfLin1ELi1ELi0ELin1ELi1EEES3_, symObjAddr: 0x46C, symBinAddr: 0x10000278C, symSize: 0x588 }
  - { offsetInCU: 0xA6D79, offset: 0xA6D79, size: 0x8, addend: 0x0, symName: __ZN5Eigen8IOFormatC2EiiRKNSt3__112basic_stringIcNS1_11char_traitsIcEENS1_9allocatorIcEEEES9_S9_S9_S9_S9_c, symObjAddr: 0x9CD4, symBinAddr: 0x10000BFF4, symSize: 0x51C }
  - { offsetInCU: 0xA8AC6, offset: 0xA8AC6, size: 0x8, addend: 0x0, symName: __ZN5Eigen8IOFormatD2Ev, symObjAddr: 0xA1F0, symBinAddr: 0x10000C510, symSize: 0xD0 }
  - { offsetInCU: 0xA9243, offset: 0xA9243, size: 0x8, addend: 0x0, symName: __Z27createGrayscaleImageTexturePfP12SDL_Renderer, symObjAddr: 0xC9C, symBinAddr: 0x100002FBC, symSize: 0x11C }
  - { offsetInCU: 0xA9F4C, offset: 0xA9F4C, size: 0x8, addend: 0x0, symName: __Z21read_mnist_pixel_dataRKNSt3__112basic_stringIcNS_11char_traitsIcEENS_9allocatorIcEEEEj, symObjAddr: 0xDB8, symBinAddr: 0x1000030D8, symSize: 0x3C4 }
  - { offsetInCU: 0xAAB10, offset: 0xAAB10, size: 0x8, addend: 0x0, symName: __ZNSt3__114basic_ifstreamIcNS_11char_traitsIcEEEC1ERKNS_12basic_stringIcS2_NS_9allocatorIcEEEEj, symObjAddr: 0x117C, symBinAddr: 0x10000349C, symSize: 0x118 }
  - { offsetInCU: 0xAAD5A, offset: 0xAAD5A, size: 0x8, addend: 0x0, symName: __ZNSt3__16vectorIN5Eigen6MatrixIfLin1ELi1ELi0ELin1ELi1EEENS_9allocatorIS3_EEED1B7v160006Ev, symObjAddr: 0x1294, symBinAddr: 0x1000035B4, symSize: 0x5C }
  - { offsetInCU: 0xAAFF3, offset: 0xAAFF3, size: 0x8, addend: 0x0, symName: __ZNSt3__114basic_ifstreamIcNS_11char_traitsIcEEED1Ev, symObjAddr: 0x12F0, symBinAddr: 0x100003610, symSize: 0x58 }
  - { offsetInCU: 0xAB13A, offset: 0xAB13A, size: 0x8, addend: 0x0, symName: __Z16one_hot_encodingi, symObjAddr: 0x1348, symBinAddr: 0x100003668, symSize: 0x9C }
  - { offsetInCU: 0xAB5A7, offset: 0xAB5A7, size: 0x8, addend: 0x0, symName: __Z14one_hot_decodeRKN5Eigen6MatrixIfLin1ELi1ELi0ELin1ELi1EEE, symObjAddr: 0x13E4, symBinAddr: 0x100003704, symSize: 0x64 }
  - { offsetInCU: 0xAB6EB, offset: 0xAB6EB, size: 0x8, addend: 0x0, symName: __Z21read_mnist_label_dataRKNSt3__112basic_stringIcNS_11char_traitsIcEENS_9allocatorIcEEEEj, symObjAddr: 0x1448, symBinAddr: 0x100003768, symSize: 0x2E4 }
  - { offsetInCU: 0xAB6F6, offset: 0xAB6F6, size: 0x8, addend: 0x0, symName: __Z14one_hot_decodeRKN5Eigen6MatrixIfLin1ELi1ELi0ELin1ELi1EEE.cold.1, symObjAddr: 0xBC4C, symBinAddr: 0x10000DFC4, symSize: 0x28 }
  - { offsetInCU: 0xAB7D0, offset: 0xAB7D0, size: 0x8, addend: 0x0, symName: __Z21read_mnist_label_dataRKNSt3__112basic_stringIcNS_11char_traitsIcEENS_9allocatorIcEEEEj, symObjAddr: 0x1448, symBinAddr: 0x100003768, symSize: 0x2E4 }
  - { offsetInCU: 0xAC7D2, offset: 0xAC7D2, size: 0x8, addend: 0x0, symName: _main, symObjAddr: 0x172C, symBinAddr: 0x100003A4C, symSize: 0x10F4 }
  - { offsetInCU: 0xB2044, offset: 0xB2044, size: 0x8, addend: 0x0, symName: __ZN13NeuralNetworkC2IJNSt3__14pairIPFffES4_EEiS5_iNS2_IDnDnEEiEEEiDpT_, symObjAddr: 0xA2C0, symBinAddr: 0x10000C5E0, symSize: 0x250 }
  - { offsetInCU: 0xB28C6, offset: 0xB28C6, size: 0x8, addend: 0x0, symName: __ZNSt3__16vectorIN5Eigen6MatrixIfLin1ELi1ELi0ELin1ELi1EEENS_9allocatorIS3_EEEC2INS_11__wrap_iterIPS3_EELi0EEET_SB_, symObjAddr: 0x58F8, symBinAddr: 0x100007C18, symSize: 0x124 }
  - { offsetInCU: 0xB2D84, offset: 0xB2D84, size: 0x8, addend: 0x0, symName: __ZN13NeuralNetwork14printLayerDimsEv, symObjAddr: 0x2820, symBinAddr: 0x100004B40, symSize: 0x3F4 }
  - { offsetInCU: 0xB389B, offset: 0xB389B, size: 0x8, addend: 0x0, symName: __ZN13NeuralNetwork16trainMiniBatchGDERKNSt3__16vectorIN5Eigen6MatrixIfLin1ELi1ELi0ELin1ELi1EEENS0_9allocatorIS4_EEEES9_ifff, symObjAddr: 0x2C14, symBinAddr: 0x100004F34, symSize: 0x2150 }
  - { offsetInCU: 0xBCAEA, offset: 0xBCAEA, size: 0x8, addend: 0x0, symName: __ZNSt3__16vectorIN5Eigen6MatrixIfLin1ELi1ELi0ELin1ELi1EEENS_9allocatorIS3_EEEC2ERKS6_, symObjAddr: 0x7158, symBinAddr: 0x100009478, symSize: 0x128 }
  - { offsetInCU: 0xBCF35, offset: 0xBCF35, size: 0x8, addend: 0x0, symName: __ZN13NeuralNetwork8evaluateENSt3__16vectorIN5Eigen6MatrixIfLin1ELi1ELi0ELin1ELi1EEENS0_9allocatorIS4_EEEES7_, symObjAddr: 0x4D64, symBinAddr: 0x100007084, symSize: 0x398 }
  - { offsetInCU: 0xBDDEA, offset: 0xBDDEA, size: 0x8, addend: 0x0, symName: __Z15two_vec_shuffleIN5Eigen6MatrixIfLin1ELi1ELi0ELin1ELi1EEES2_EvRNSt3__16vectorIT_NS3_9allocatorIS5_EEEERNS4_IT0_NS6_ISA_EEEERNS3_23mersenne_twister_engineIjLm32ELm624ELm397ELm31ELj2567483615ELm11ELj4294967295ELm7ELj2636928640ELm15ELj4022730752ELm18ELj1812433253EEE, symObjAddr: 0x50FC, symBinAddr: 0x10000741C, symSize: 0x154 }
  - { offsetInCU: 0xBF4CA, offset: 0xBF4CA, size: 0x8, addend: 0x0, symName: __ZN13NeuralNetwork7predictEN5Eigen6MatrixIfLin1ELi1ELi0ELin1ELi1EEEj, symObjAddr: 0x5250, symBinAddr: 0x100007570, symSize: 0x130 }
  - { offsetInCU: 0xBFB55, offset: 0xBFB55, size: 0x8, addend: 0x0, symName: __ZN13NeuralNetwork12nnInfoStringEv, symObjAddr: 0x5380, symBinAddr: 0x1000076A0, symSize: 0x3B0 }
  - { offsetInCU: 0xC10A8, offset: 0xC10A8, size: 0x8, addend: 0x0, symName: __ZN13NeuralNetworkD2Ev, symObjAddr: 0x8EF8, symBinAddr: 0x10000B218, symSize: 0x1D8 }
  - { offsetInCU: 0xC2181, offset: 0xC2181, size: 0x8, addend: 0x0, symName: __ZNKSt3__16vectorIN5Eigen6MatrixIfLin1ELi1ELi0ELin1ELi1EEENS_9allocatorIS3_EEE20__throw_out_of_rangeB7v160006Ev, symObjAddr: 0x5BF8, symBinAddr: 0x100007F18, symSize: 0x14 }
  - { offsetInCU: 0xC21AA, offset: 0xC21AA, size: 0x8, addend: 0x0, symName: __ZN5Eigen15PlainObjectBaseINS_6MatrixIfLin1ELi1ELi0ELin1ELi1EEEEC2INS_13CwiseBinaryOpINS_8internal20scalar_difference_opIffEEKS2_S9_EEEERKNS_9DenseBaseIT_EE, symObjAddr: 0x5C0C, symBinAddr: 0x100007F2C, symSize: 0x200 }
  - { offsetInCU: 0xC4523, offset: 0xC4523, size: 0x8, addend: 0x0, symName: __ZN5Eigen15PlainObjectBaseINS_6MatrixIfLin1ELi1ELi0ELin1ELi1EEEEC2INS_13CwiseBinaryOpINS_8internal20scalar_difference_opIffEEKS2_S9_EEEERKNS_9DenseBaseIT_EE, symObjAddr: 0x5C0C, symBinAddr: 0x100007F2C, symSize: 0x200 }
  - { offsetInCU: 0xC4CBC, offset: 0xC4CBC, size: 0x8, addend: 0x0, symName: __ZNKSt3__16vectorIN5Eigen6MatrixIfLin1ELin1ELi0ELin1ELin1EEENS_9allocatorIS3_EEE20__throw_out_of_rangeB7v160006Ev, symObjAddr: 0x5B70, symBinAddr: 0x100007E90, symSize: 0x14 }
  - { offsetInCU: 0xC4CE5, offset: 0xC4CE5, size: 0x8, addend: 0x0, symName: __ZNSt3__120__throw_out_of_rangeB7v160006EPKc, symObjAddr: 0x5B84, symBinAddr: 0x100007EA4, symSize: 0x50 }
  - { offsetInCU: 0xC4CF0, offset: 0xC4CF0, size: 0x8, addend: 0x0, symName: __ZNSt16invalid_argumentC1B7v160006EPKc, symObjAddr: 0x5ADC, symBinAddr: 0x100007DFC, symSize: 0x24 }
  - { offsetInCU: 0xC4D4D, offset: 0xC4D4D, size: 0x8, addend: 0x0, symName: __ZNKSt3__16vectorIN5Eigen6MatrixIfLin1ELin1ELi0ELin1ELin1EEENS_9allocatorIS3_EEE20__throw_length_errorB7v160006Ev, symObjAddr: 0x5B5C, symBinAddr: 0x100007E7C, symSize: 0x14 }
  - { offsetInCU: 0xC4D76, offset: 0xC4D76, size: 0x8, addend: 0x0, symName: __ZNKSt3__16vectorIN5Eigen6MatrixIfLin1ELin1ELi0ELin1ELin1EEENS_9allocatorIS3_EEE20__throw_out_of_rangeB7v160006Ev, symObjAddr: 0x5B70, symBinAddr: 0x100007E90, symSize: 0x14 }
  - { offsetInCU: 0xC4D81, offset: 0xC4D81, size: 0x8, addend: 0x0, symName: __ZN13NeuralNetwork16trainMiniBatchGDERKNSt3__16vectorIN5Eigen6MatrixIfLin1ELi1ELi0ELin1ELi1EEENS0_9allocatorIS4_EEEES9_ifff.cold.1, symObjAddr: 0xBC74, symBinAddr: 0x10000DFEC, symSize: 0x58 }
  - { offsetInCU: 0xC527E, offset: 0xC527E, size: 0x8, addend: 0x0, symName: __ZN13NeuralNetwork11feedForwardEN5Eigen6MatrixIfLin1ELi1ELi0ELin1ELi1EEEj, symObjAddr: 0x7280, symBinAddr: 0x1000095A0, symSize: 0x1094 }
  - { offsetInCU: 0xCA5BD, offset: 0xCA5BD, size: 0x8, addend: 0x0, symName: __ZNSt3__128__exception_guard_exceptionsINS_6vectorIN5Eigen6MatrixIfLin1ELi1ELi0ELin1ELi1EEENS_9allocatorIS4_EEE16__destroy_vectorEED1B7v160006Ev, symObjAddr: 0x57B4, symBinAddr: 0x100007AD4, symSize: 0x80 }
  - { offsetInCU: 0xCA85E, offset: 0xCA85E, size: 0x8, addend: 0x0, symName: __ZNKSt3__16vectorIN5Eigen6MatrixIfLin1ELi1ELi0ELin1ELi1EEENS_9allocatorIS3_EEE20__throw_length_errorB7v160006Ev, symObjAddr: 0x5834, symBinAddr: 0x100007B54, symSize: 0x14 }
  - { offsetInCU: 0xCA887, offset: 0xCA887, size: 0x8, addend: 0x0, symName: __ZNSt3__120__throw_length_errorB7v160006EPKc, symObjAddr: 0x5848, symBinAddr: 0x100007B68, symSize: 0x50 }
  - { offsetInCU: 0xCA892, offset: 0xCA892, size: 0x8, addend: 0x0, symName: __ZNSt12length_errorC1B7v160006EPKc, symObjAddr: 0x5898, symBinAddr: 0x100007BB8, symSize: 0x24 }
  - { offsetInCU: 0xCA919, offset: 0xCA919, size: 0x8, addend: 0x0, symName: __ZNKSt3__112basic_stringIcNS_11char_traitsIcEENS_9allocatorIcEEE20__throw_length_errorB7v160006Ev, symObjAddr: 0x58E4, symBinAddr: 0x100007C04, symSize: 0x14 }
  - { offsetInCU: 0xCA942, offset: 0xCA942, size: 0x8, addend: 0x0, symName: __ZNSt3__16vectorIN5Eigen6MatrixIfLin1ELi1ELi0ELin1ELi1EEENS_9allocatorIS3_EEEC2INS_11__wrap_iterIPS3_EELi0EEET_SB_, symObjAddr: 0x58F8, symBinAddr: 0x100007C18, symSize: 0x124 }
  - { offsetInCU: 0xCAA83, offset: 0xCAA83, size: 0x8, addend: 0x0, symName: __ZNSt3__128__exception_guard_exceptionsINS_29_AllocatorDestroyRangeReverseINS_9allocatorIN5Eigen6MatrixIfLin1ELi1ELi0ELin1ELi1EEEEEPS5_EEED1B7v160006Ev, symObjAddr: 0x5A1C, symBinAddr: 0x100007D3C, symSize: 0x58 }
  - { offsetInCU: 0xCAC8E, offset: 0xCAC8E, size: 0x8, addend: 0x0, symName: __ZN5Eigen8internal28conditional_aligned_new_autoIfLb1EEEPT_m.cold.1, symObjAddr: 0xBCCC, symBinAddr: 0x10000E044, symSize: 0x28 }
  - { offsetInCU: 0xCAD03, offset: 0xCAD03, size: 0x8, addend: 0x0, symName: __ZNSt3__16vectorIN5Eigen6MatrixIfLin1ELin1ELi0ELin1ELin1EEENS_9allocatorIS3_EEED1B7v160006Ev, symObjAddr: 0x5B00, symBinAddr: 0x100007E20, symSize: 0x5C }
  - { offsetInCU: 0xCAFA1, offset: 0xCAFA1, size: 0x8, addend: 0x0, symName: __ZNSt12out_of_rangeC1B7v160006EPKc, symObjAddr: 0x5BD4, symBinAddr: 0x100007EF4, symSize: 0x24 }
  - { offsetInCU: 0xCBAFA, offset: 0xCBAFA, size: 0x8, addend: 0x0, symName: __ZN5Eigen8internal20generic_product_implINS_9TransposeINS_6MatrixIfLin1ELin1ELi0ELin1ELin1EEEEENS3_IfLin1ELi1ELi0ELin1ELi1EEENS_10DenseShapeES7_Li7EE13scaleAndAddToIS6_EEvRT_RKS5_RKS6_RKf, symObjAddr: 0x605C, symBinAddr: 0x10000837C, symSize: 0x19C }
  - { offsetInCU: 0xCC711, offset: 0xCC711, size: 0x8, addend: 0x0, symName: __ZN5Eigen8internal19gemv_dense_selectorILi2ELi1ELb1EE3runINS_9TransposeINS_6MatrixIfLin1ELin1ELi0ELin1ELin1EEEEENS5_IfLin1ELi1ELi0ELin1ELi1EEES8_EEvRKT_RKT0_RT1_RKNSF_6ScalarE, symObjAddr: 0x61F8, symBinAddr: 0x100008518, symSize: 0x188 }
  - { offsetInCU: 0xCC725, offset: 0xCC725, size: 0x8, addend: 0x0, symName: __ZN5Eigen8internal26call_dense_assignment_loopINS_6MatrixIfLin1ELi1ELi0ELin1ELi1EEENS_13CwiseBinaryOpINS0_17scalar_product_opIffEEKNS_12ArrayWrapperIKNS_7ProductINS_9TransposeINS2_IfLin1ELin1ELi0ELin1ELin1EEEEES3_Li0EEEEEKNS7_IS3_EEEENS0_9assign_opIffEEEEvRT_RKT0_RKT1_.cold.1, symObjAddr: 0xBCF4, symBinAddr: 0x10000E06C, symSize: 0x24 }
  - { offsetInCU: 0xCD02C, offset: 0xCD02C, size: 0x8, addend: 0x0, symName: __ZN5Eigen8internal20generic_product_implINS_9TransposeINS_6MatrixIfLin1ELin1ELi0ELin1ELin1EEEEENS3_IfLin1ELi1ELi0ELin1ELi1EEENS_10DenseShapeES7_Li7EE13scaleAndAddToIS6_EEvRT_RKS5_RKS6_RKf.cold.4, symObjAddr: 0xBD84, symBinAddr: 0x10000E0FC, symSize: 0x28 }
  - { offsetInCU: 0xCD05A, offset: 0xCD05A, size: 0x8, addend: 0x0, symName: __ZN5Eigen8internal20generic_product_implINS_9TransposeINS_6MatrixIfLin1ELin1ELi0ELin1ELin1EEEEENS3_IfLin1ELi1ELi0ELin1ELi1EEENS_10DenseShapeES7_Li7EE13scaleAndAddToIS6_EEvRT_RKS5_RKS6_RKf.cold.3, symObjAddr: 0xBD60, symBinAddr: 0x10000E0D8, symSize: 0x24 }
  - { offsetInCU: 0xCD0C8, offset: 0xCD0C8, size: 0x8, addend: 0x0, symName: __ZN5Eigen8internal20generic_product_implINS_9TransposeINS_6MatrixIfLin1ELin1ELi0ELin1ELin1EEEEENS3_IfLin1ELi1ELi0ELin1ELi1EEENS_10DenseShapeES7_Li7EE13scaleAndAddToIS6_EEvRT_RKS5_RKS6_RKf.cold.1, symObjAddr: 0xBD18, symBinAddr: 0x10000E090, symSize: 0x24 }
  - { offsetInCU: 0xCD161, offset: 0xCD161, size: 0x8, addend: 0x0, symName: __ZN5Eigen8internal20generic_product_implINS_9TransposeINS_6MatrixIfLin1ELin1ELi0ELin1ELin1EEEEENS3_IfLin1ELi1ELi0ELin1ELi1EEENS_10DenseShapeES7_Li7EE13scaleAndAddToIS6_EEvRT_RKS5_RKS6_RKf.cold.2, symObjAddr: 0xBD3C, symBinAddr: 0x10000E0B4, symSize: 0x24 }
  - { offsetInCU: 0xCD556, offset: 0xCD556, size: 0x8, addend: 0x0, symName: __ZN5Eigen8internal19gemv_dense_selectorILi2ELi1ELb1EE3runINS_9TransposeINS_6MatrixIfLin1ELin1ELi0ELin1ELin1EEEEENS5_IfLin1ELi1ELi0ELin1ELi1EEES8_EEvRKT_RKT0_RT1_RKNSF_6ScalarE.cold.1, symObjAddr: 0xBDAC, symBinAddr: 0x10000E124, symSize: 0x28 }
  - { offsetInCU: 0xCEB00, offset: 0xCEB00, size: 0x8, addend: 0x0, symName: __ZNSt3__117bad_function_callD1Ev, symObjAddr: 0x7140, symBinAddr: 0x100009460, symSize: 0x4 }
  - { offsetInCU: 0xCEB22, offset: 0xCEB22, size: 0x8, addend: 0x0, symName: __ZNSt3__117bad_function_callD1Ev, symObjAddr: 0x7140, symBinAddr: 0x100009460, symSize: 0x4 }
  - { offsetInCU: 0xCEB56, offset: 0xCEB56, size: 0x8, addend: 0x0, symName: __ZNSt3__117bad_function_callD0Ev, symObjAddr: 0x7144, symBinAddr: 0x100009464, symSize: 0x14 }
  - { offsetInCU: 0xCFA74, offset: 0xCFA74, size: 0x8, addend: 0x0, symName: __ZN13NeuralNetwork11feedForwardEN5Eigen6MatrixIfLin1ELi1ELi0ELin1ELi1EEEj.cold.1, symObjAddr: 0xBDD4, symBinAddr: 0x10000E14C, symSize: 0x24 }
  - { offsetInCU: 0xCFB50, offset: 0xCFB50, size: 0x8, addend: 0x0, symName: __ZNKSt3__16vectorINS_8functionIFffEEENS_9allocatorIS3_EEE20__throw_out_of_rangeB7v160006Ev, symObjAddr: 0x8D04, symBinAddr: 0x10000B024, symSize: 0x14 }
  - { offsetInCU: 0xCFB79, offset: 0xCFB79, size: 0x8, addend: 0x0, symName: __ZN5Eigen8internal26call_dense_assignment_loopINS_6MatrixIfLin1ELi1ELi0ELin1ELi1EEENS_12CwiseUnaryOpINSt3__18functionIFffEEEKS3_EENS0_9assign_opIffEEEEvRT_RKT0_RKT1_, symObjAddr: 0x8D18, symBinAddr: 0x10000B038, symSize: 0x1E0 }
  - { offsetInCU: 0xD03FA, offset: 0xD03FA, size: 0x8, addend: 0x0, symName: __ZN5Eigen8internal20generic_product_implINS_6MatrixIfLin1ELin1ELi0ELin1ELin1EEENS2_IfLin1ELi1ELi0ELin1ELi1EEENS_10DenseShapeES5_Li7EE13scaleAndAddToIS4_EEvRT_RKS3_RKS4_RKf, symObjAddr: 0x8560, symBinAddr: 0x10000A880, symSize: 0x174 }
  - { offsetInCU: 0xD0B96, offset: 0xD0B96, size: 0x8, addend: 0x0, symName: __ZN5Eigen8internal29general_matrix_vector_productIlfNS0_22const_blas_data_mapperIflLi0EEELi0ELb0EfNS2_IflLi1EEELb0ELi0EE3runEllRKS3_RKS4_Pflf, symObjAddr: 0x86D4, symBinAddr: 0x10000A9F4, symSize: 0x630 }
  - { offsetInCU: 0xD0BAA, offset: 0xD0BAA, size: 0x8, addend: 0x0, symName: __ZN5Eigen8internal26call_dense_assignment_loopINS_6MatrixIfLin1ELi1ELi0ELin1ELi1EEENS_13MatrixWrapperIKNS_13CwiseBinaryOpINS0_13scalar_sum_opIffEEKNS_12ArrayWrapperIKNS_7ProductINS2_IfLin1ELin1ELi0ELin1ELin1EEES3_Li0EEEEEKNS8_ISA_EEEEEENS0_9assign_opIffEEEEvRT_RKT0_RKT1_.cold.1, symObjAddr: 0xBDF8, symBinAddr: 0x10000E170, symSize: 0x24 }
  - { offsetInCU: 0xD123A, offset: 0xD123A, size: 0x8, addend: 0x0, symName: __ZN5Eigen8internal20generic_product_implINS_6MatrixIfLin1ELin1ELi0ELin1ELin1EEENS2_IfLin1ELi1ELi0ELin1ELi1EEENS_10DenseShapeES5_Li7EE13scaleAndAddToIS4_EEvRT_RKS3_RKS4_RKf.cold.4, symObjAddr: 0xBE88, symBinAddr: 0x10000E200, symSize: 0x28 }
  - { offsetInCU: 0xD1268, offset: 0xD1268, size: 0x8, addend: 0x0, symName: __ZN5Eigen8internal20generic_product_implINS_6MatrixIfLin1ELin1ELi0ELin1ELin1EEENS2_IfLin1ELi1ELi0ELin1ELi1EEENS_10DenseShapeES5_Li7EE13scaleAndAddToIS4_EEvRT_RKS3_RKS4_RKf.cold.3, symObjAddr: 0xBE64, symBinAddr: 0x10000E1DC, symSize: 0x24 }
  - { offsetInCU: 0xD12D6, offset: 0xD12D6, size: 0x8, addend: 0x0, symName: __ZN5Eigen8internal20generic_product_implINS_6MatrixIfLin1ELin1ELi0ELin1ELin1EEENS2_IfLin1ELi1ELi0ELin1ELi1EEENS_10DenseShapeES5_Li7EE13scaleAndAddToIS4_EEvRT_RKS3_RKS4_RKf.cold.1, symObjAddr: 0xBE1C, symBinAddr: 0x10000E194, symSize: 0x24 }
  - { offsetInCU: 0xD136F, offset: 0xD136F, size: 0x8, addend: 0x0, symName: __ZN5Eigen8internal20generic_product_implINS_6MatrixIfLin1ELin1ELi0ELin1ELin1EEENS2_IfLin1ELi1ELi0ELin1ELi1EEENS_10DenseShapeES5_Li7EE13scaleAndAddToIS4_EEvRT_RKS3_RKS4_RKf.cold.2, symObjAddr: 0xBE40, symBinAddr: 0x10000E1B8, symSize: 0x24 }
  - { offsetInCU: 0xD1899, offset: 0xD1899, size: 0x8, addend: 0x0, symName: __ZNSt3__16vectorINS_8functionIFffEEENS_9allocatorIS3_EEED1B7v160006Ev, symObjAddr: 0x90D0, symBinAddr: 0x10000B3F0, symSize: 0x8C }
  - { offsetInCU: 0xD1A8B, offset: 0xD1A8B, size: 0x8, addend: 0x0, symName: __ZNSt3__110__function6__funcIPFffENS_9allocatorIS3_EES2_ED1Ev, symObjAddr: 0x915C, symBinAddr: 0x10000B47C, symSize: 0x4 }
  - { offsetInCU: 0xD1AB7, offset: 0xD1AB7, size: 0x8, addend: 0x0, symName: __ZNSt3__110__function6__funcIPFffENS_9allocatorIS3_EES2_ED0Ev, symObjAddr: 0x9160, symBinAddr: 0x10000B480, symSize: 0x4 }
  - { offsetInCU: 0xD1CD1, offset: 0xD1CD1, size: 0x8, addend: 0x0, symName: __ZNKSt3__110__function6__funcIPFffENS_9allocatorIS3_EES2_E7__cloneEv, symObjAddr: 0x9164, symBinAddr: 0x10000B484, symSize: 0x38 }
  - { offsetInCU: 0xD1FCC, offset: 0xD1FCC, size: 0x8, addend: 0x0, symName: __ZNKSt3__110__function6__funcIPFffENS_9allocatorIS3_EES2_E7__cloneEPNS0_6__baseIS2_EE, symObjAddr: 0x919C, symBinAddr: 0x10000B4BC, symSize: 0x18 }
  - { offsetInCU: 0xD2004, offset: 0xD2004, size: 0x8, addend: 0x0, symName: __ZNKSt3__110__function6__funcIPFffENS_9allocatorIS3_EES2_E7__cloneEPNS0_6__baseIS2_EE, symObjAddr: 0x919C, symBinAddr: 0x10000B4BC, symSize: 0x18 }
  - { offsetInCU: 0xD2032, offset: 0xD2032, size: 0x8, addend: 0x0, symName: __ZNKSt3__110__function6__funcIPFffENS_9allocatorIS3_EES2_E7__cloneEPNS0_6__baseIS2_EE, symObjAddr: 0x919C, symBinAddr: 0x10000B4BC, symSize: 0x18 }
  - { offsetInCU: 0xD20C9, offset: 0xD20C9, size: 0x8, addend: 0x0, symName: __ZNSt3__110__function6__funcIPFffENS_9allocatorIS3_EES2_E7destroyEv, symObjAddr: 0x91B4, symBinAddr: 0x10000B4D4, symSize: 0x4 }
  - { offsetInCU: 0xD211C, offset: 0xD211C, size: 0x8, addend: 0x0, symName: __ZNSt3__110__function6__funcIPFffENS_9allocatorIS3_EES2_E18destroy_deallocateEv, symObjAddr: 0x91B8, symBinAddr: 0x10000B4D8, symSize: 0x4 }
  - { offsetInCU: 0xD2151, offset: 0xD2151, size: 0x8, addend: 0x0, symName: __ZNSt3__110__function6__funcIPFffENS_9allocatorIS3_EES2_E18destroy_deallocateEv, symObjAddr: 0x91B8, symBinAddr: 0x10000B4D8, symSize: 0x4 }
  - { offsetInCU: 0xD2173, offset: 0xD2173, size: 0x8, addend: 0x0, symName: __ZNSt3__110__function6__funcIPFffENS_9allocatorIS3_EES2_E18destroy_deallocateEv, symObjAddr: 0x91B8, symBinAddr: 0x10000B4D8, symSize: 0x4 }
  - { offsetInCU: 0xD219E, offset: 0xD219E, size: 0x8, addend: 0x0, symName: __ZNSt3__110__function6__funcIPFffENS_9allocatorIS3_EES2_E18destroy_deallocateEv, symObjAddr: 0x91B8, symBinAddr: 0x10000B4D8, symSize: 0x4 }
  - { offsetInCU: 0xD21C4, offset: 0xD21C4, size: 0x8, addend: 0x0, symName: __ZNSt3__110__function6__funcIPFffENS_9allocatorIS3_EES2_E18destroy_deallocateEv, symObjAddr: 0x91B8, symBinAddr: 0x10000B4D8, symSize: 0x4 }
  - { offsetInCU: 0xD2242, offset: 0xD2242, size: 0x8, addend: 0x0, symName: __ZNSt3__110__function6__funcIPFffENS_9allocatorIS3_EES2_EclEOf, symObjAddr: 0x91BC, symBinAddr: 0x10000B4DC, symSize: 0xC }
  - { offsetInCU: 0xD227C, offset: 0xD227C, size: 0x8, addend: 0x0, symName: __ZNSt3__110__function6__funcIPFffENS_9allocatorIS3_EES2_EclEOf, symObjAddr: 0x91BC, symBinAddr: 0x10000B4DC, symSize: 0xC }
  - { offsetInCU: 0xD22A1, offset: 0xD22A1, size: 0x8, addend: 0x0, symName: __ZNSt3__110__function6__funcIPFffENS_9allocatorIS3_EES2_EclEOf, symObjAddr: 0x91BC, symBinAddr: 0x10000B4DC, symSize: 0xC }
  - { offsetInCU: 0xD22C5, offset: 0xD22C5, size: 0x8, addend: 0x0, symName: __ZNSt3__110__function6__funcIPFffENS_9allocatorIS3_EES2_EclEOf, symObjAddr: 0x91BC, symBinAddr: 0x10000B4DC, symSize: 0xC }
  - { offsetInCU: 0xD2351, offset: 0xD2351, size: 0x8, addend: 0x0, symName: __ZNKSt3__110__function6__funcIPFffENS_9allocatorIS3_EES2_E6targetERKSt9type_info, symObjAddr: 0x91C8, symBinAddr: 0x10000B4E8, symSize: 0x74 }
  - { offsetInCU: 0xD23D6, offset: 0xD23D6, size: 0x8, addend: 0x0, symName: __ZNKSt3__110__function6__funcIPFffENS_9allocatorIS3_EES2_E11target_typeEv, symObjAddr: 0x923C, symBinAddr: 0x10000B55C, symSize: 0xC }
  - { offsetInCU: 0xD298C, offset: 0xD298C, size: 0x8, addend: 0x0, symName: __ZNSt3__118basic_stringstreamIcNS_11char_traitsIcEENS_9allocatorIcEEED1Ev, symObjAddr: 0x9C4C, symBinAddr: 0x10000BF6C, symSize: 0x88 }
  - { offsetInCU: 0xD2F62, offset: 0xD2F62, size: 0x8, addend: 0x0, symName: __ZN13NeuralNetwork10initLayersIJNSt3__14pairIPFffES4_EEiNS2_IDnDnEEiEEEviNS2_INS1_8functionIS3_EES8_EEiDpT_, symObjAddr: 0xA510, symBinAddr: 0x10000C830, symSize: 0x5A4 }
  - { offsetInCU: 0xD4CA5, offset: 0xD4CA5, size: 0x8, addend: 0x0, symName: __ZNSt3__14pairINS_8functionIFffEEES3_ED1Ev, symObjAddr: 0xAAB4, symBinAddr: 0x10000CDD4, symSize: 0x7C }
  - { offsetInCU: 0xD5712, offset: 0xD5712, size: 0x8, addend: 0x0, symName: __ZNSt3__16vectorIN5Eigen6MatrixIfLin1ELi1ELi0ELin1ELi1EEENS_9allocatorIS3_EEE21__push_back_slow_pathIS3_EEvOT_, symObjAddr: 0xB094, symBinAddr: 0x10000D3B4, symSize: 0x118 }
  - { offsetInCU: 0xD5DD0, offset: 0xD5DD0, size: 0x8, addend: 0x0, symName: __ZNSt3__16vectorINS_8functionIFffEEENS_9allocatorIS3_EEE21__push_back_slow_pathIRKS3_EEvOT_, symObjAddr: 0xB1AC, symBinAddr: 0x10000D4CC, symSize: 0x238 }
  - { offsetInCU: 0xD5DE4, offset: 0xD5DE4, size: 0x8, addend: 0x0, symName: __ZNSt3__16vectorINS_8functionIFffEEENS_9allocatorIS3_EEE21__push_back_slow_pathIRKS3_EEvOT_, symObjAddr: 0xB1AC, symBinAddr: 0x10000D4CC, symSize: 0x238 }
  - { offsetInCU: 0xD643B, offset: 0xD643B, size: 0x8, addend: 0x0, symName: __ZNSt3__16vectorIN5Eigen6MatrixIfLin1ELin1ELi0ELin1ELin1EEENS_9allocatorIS3_EEE21__push_back_slow_pathIS3_EEvOT_, symObjAddr: 0xB474, symBinAddr: 0x10000D794, symSize: 0x154 }
  - { offsetInCU: 0xD6B07, offset: 0xD6B07, size: 0x8, addend: 0x0, symName: __ZN13NeuralNetwork10initLayersIJEEEviNSt3__14pairINS1_8functionIFffEEES5_EEiDpT_, symObjAddr: 0xB5C8, symBinAddr: 0x10000D8E8, symSize: 0x4A4 }
  - { offsetInCU: 0xD6B1B, offset: 0xD6B1B, size: 0x8, addend: 0x0, symName: __ZN13NeuralNetwork10initLayersIJNSt3__14pairIDnDnEEiEEEviNS2_INS1_8functionIFffEEES6_EEiDpT_, symObjAddr: 0xAB30, symBinAddr: 0x10000CE50, symSize: 0x564 }
  - { offsetInCU: 0xD86B0, offset: 0xD86B0, size: 0x8, addend: 0x0, symName: __ZN13NeuralNetwork10initLayersIJNSt3__14pairIPFffES4_EEiNS2_IDnDnEEiEEEviNS2_INS1_8functionIS3_EES8_EEiDpT_.cold.1, symObjAddr: 0xBEB0, symBinAddr: 0x10000E228, symSize: 0x24 }
  - { offsetInCU: 0xD871C, offset: 0xD871C, size: 0x8, addend: 0x0, symName: __ZN13NeuralNetwork10initLayersIJNSt3__14pairIPFffES4_EEiNS2_IDnDnEEiEEEviNS2_INS1_8functionIS3_EES8_EEiDpT_.cold.2, symObjAddr: 0xBED4, symBinAddr: 0x10000E24C, symSize: 0x24 }
  - { offsetInCU: 0xD886C, offset: 0xD886C, size: 0x8, addend: 0x0, symName: __ZN13NeuralNetwork10initLayersIJEEEviNSt3__14pairINS1_8functionIFffEEES5_EEiDpT_, symObjAddr: 0xB5C8, symBinAddr: 0x10000D8E8, symSize: 0x4A4 }
  - { offsetInCU: 0xDA271, offset: 0xDA271, size: 0x8, addend: 0x0, symName: __ZN13NeuralNetwork10initLayersIJNSt3__14pairIDnDnEEiEEEviNS2_INS1_8functionIFffEEES6_EEiDpT_.cold.1, symObjAddr: 0xBEF8, symBinAddr: 0x10000E270, symSize: 0x24 }
  - { offsetInCU: 0xDA2DD, offset: 0xDA2DD, size: 0x8, addend: 0x0, symName: __ZN13NeuralNetwork10initLayersIJNSt3__14pairIDnDnEEiEEEviNS2_INS1_8functionIFffEEES6_EEiDpT_.cold.2, symObjAddr: 0xBF1C, symBinAddr: 0x10000E294, symSize: 0x24 }
  - { offsetInCU: 0xDA86E, offset: 0xDA86E, size: 0x8, addend: 0x0, symName: __ZNKSt3__16vectorINS_8functionIFffEEENS_9allocatorIS3_EEE20__throw_length_errorB7v160006Ev, symObjAddr: 0xB460, symBinAddr: 0x10000D780, symSize: 0x14 }
  - { offsetInCU: 0xDA897, offset: 0xDA897, size: 0x8, addend: 0x0, symName: __ZNSt3__16vectorIN5Eigen6MatrixIfLin1ELin1ELi0ELin1ELin1EEENS_9allocatorIS3_EEE21__push_back_slow_pathIS3_EEvOT_, symObjAddr: 0xB474, symBinAddr: 0x10000D794, symSize: 0x154 }
  - { offsetInCU: 0xDA8A2, offset: 0xDA8A2, size: 0x8, addend: 0x0, symName: __ZNSt3__114__split_bufferINS_8functionIFffEEERNS_9allocatorIS3_EEED1Ev, symObjAddr: 0xB3E4, symBinAddr: 0x10000D704, symSize: 0x7C }
  - { offsetInCU: 0xDAC26, offset: 0xDAC26, size: 0x8, addend: 0x0, symName: __ZN13NeuralNetwork10initLayersIJEEEviNSt3__14pairINS1_8functionIFffEEES5_EEiDpT_.cold.1, symObjAddr: 0xBF40, symBinAddr: 0x10000E2B8, symSize: 0x24 }
  - { offsetInCU: 0xDAC92, offset: 0xDAC92, size: 0x8, addend: 0x0, symName: __ZN13NeuralNetwork10initLayersIJEEEviNSt3__14pairINS1_8functionIFffEEES5_EEiDpT_.cold.2, symObjAddr: 0xBF64, symBinAddr: 0x10000E2DC, symSize: 0x24 }
  - { offsetInCU: 0xDAE1F, offset: 0xDAE1F, size: 0x8, addend: 0x0, symName: _OUTLINED_FUNCTION_0, symObjAddr: 0xBF88, symBinAddr: 0x10000DF24, symSize: 0x8 }
  - { offsetInCU: 0xDAE37, offset: 0xDAE37, size: 0x8, addend: 0x0, symName: _OUTLINED_FUNCTION_1, symObjAddr: 0xBF90, symBinAddr: 0x10000DF2C, symSize: 0x8 }
  - { offsetInCU: 0xDAE4F, offset: 0xDAE4F, size: 0x8, addend: 0x0, symName: _OUTLINED_FUNCTION_2, symObjAddr: 0xBF98, symBinAddr: 0x10000DF34, symSize: 0x8 }
  - { offsetInCU: 0xDAE67, offset: 0xDAE67, size: 0x8, addend: 0x0, symName: _OUTLINED_FUNCTION_3, symObjAddr: 0xBFA0, symBinAddr: 0x10000DF3C, symSize: 0x8 }
...
